(dp1
S'output'
p2
S"<type 'exceptions.AttributeError'> 'NoneType' object has no attribute 'replace'"
p3
sS'layer'
p4
S'C:\\Users\\w\xfdn 7\\Desktop\\web2py\\applications\\MusicProject\\views\\default/top.html'
p5
sS'code'
p6
S'response.write(\'<!DOCTYPE html PUBLIC "-//W3C//DTD XHTML 1.0 Transitional//EN" "http://www.w3.org/TR/xhtml1/DTD/xhtml1-transitional.dtd">\\r\\n<html xmlns="http://www.w3.org/1999/xhtml">\\r\\n<head>\\r\\n<meta http-equiv="Content-Type" content="text/html; charset=utf-8" />\\r\\n<meta name="keywords" content="" />\\r\\n<meta name="description" content="" />\\r\\n<link href="\', escape=False)\nresponse.write(URL(\'static\',\'css/templatemo_style.css\'))\nresponse.write(\'" rel="stylesheet" type="text/css" />\\r\\n</head>\\r\\n<body>\\r\\n\\r\\n<div id="templatemo_container">\\r\\n\\r\\n\\t<div id="templatemo_header">\\r\\n    \\t<div id="templatemo_title">\\r\\n            <div id="templatemo_sitetitle">Music <span>Layout</span></div>\\r\\n        </div>\\r\\n    </div>\\r\\n\\r\\n\\t<div id="templatemo_banner">\\r\\n       \\t<div id="templatemo_banner_text">\\r\\n            <div id="banner_title">Welcome To Music Store</div>\\r\\n            <p>\\r\\n\\t\\t\\t<h3>\\r\\n\\t\\t\\tWelcome to the online home of the music department at MSKU University. This website is done by Mugla university students Doreen and Damla from the Computer department and we \\r\\n\\t\\t\\thope that you like it and if you need to reach us our contacts are as in the about page.  <3 <3 <3 <3  </h3></p>\\r\\n            <div class="more_button"><a href="#">Read More</a></div>\\r\\n    \\t</div>\\r\\n\\t</div>\\r\\n    \\r\\n    <div id="templatemo_menu">\\r\\n     \\t<ul>\\r\\n\\t\\t\\t<li><a href="/MusicProject/default/index" class="current">Main Page</a></li>\\r\\n\\t\\t\\t<li><a href="/MusicProject/default/NewReleases">New Releases</a></li>\\r\\n            <li><a href="/MusicProject/default/music">Albums</a></li>\\r\\n            <li><a href="/MusicProject/default/top">Top 10 Songs</a></li>\\r\\n            <li><a href="/MusicProject/default/bio">Biography</a></li>\\r\\n            <li><a href="/MusicProject/default/photos">Photos</a></li>\\r\\n            <li><a href="/MusicProject/default/events">Events</a></li>\\r\\n            <li><a href="/MusicProject/default/about" class="lastmenu">About Us</a></li>\\r\\n        </ul>\\r\\n    </div>\\r\\n\\r\\n    <div id="templatemo_content">\\r\\n    \\t<div id="templatemo_left_column">\\r\\n            <div class="left_col_box">\\r\\n\\t\\t\\t</div>\\r\\n\\t\\t\\t<div class="login">\\r\\n\\t\\t\\t<h2>\\r\\n\\t\\t\\t\', escape=False)\nresponse.write(T(\'Sign Up\') if request.args(0) == \'register\' else T(\'Log In\') if request.args(0) == \'login\' else T(request.args(0).replace(\'_\',\' \').title()))\nresponse.write(\'\\r\\n\\t\\t\\t</h2>\\r\\n\\t\\t\\t</div>\\r\\n            <h2>News !!!</h2>\\r\\n            <div class="left_col_box">\\r\\n                <div class="blog_box">\\r\\n                    <h3><a href="#">Rihanna Rolls Out \\xe2\\x80\\x9cAnti World Tour\\xe2\\x80\\x9d Schedule!</a></h3>\\r\\n                    Mark your calendars, as Rihanna will begin selling tickets for her forthcoming \\xe2\\x80\\x9cAnti World Tour\\xe2\\x80\\x9d on December 3rd!\\r\\nOn Monday (November 23) the \\xe2\\x80\\x9cWe Found Love\\xe2\\x80\\x9d lady announced she\\xe2\\x80\\x99s hitting the road on February 26th, 2016 along with supporting acts Travis Scott, The Weeknd and Big Sean. <a href="#"><span>Admin</span></a> in <a href="#"><span>Videos</span></a><br />\\r\\n\\t\\t\\t\\t</div>\\r\\n                <div class="blog_box">\\r\\n                    <h3><a href="#">Duis vitae velit sed dui</a></h3>\\r\\n                    Pellentesque vitae magna. Suspendisse vitae neque eget ante tristique vestibulum.<br />\\r\\n                    Posted by <a href="#"><span>Admin</span></a> in <a href="#"><span>Audios</span></a><br />\\r\\n                    20 December 2020\\r\\n\\t\\t\\t\\t</div>\\r\\n                <div class="blog_box">\\r\\n                    <h3><a href="#">Donec mollis aliquet ligula</a></h3>\\r\\n                    Suspendisse vitae neque eget ante tristique vestibulum.<br />\\r\\n                    Posted by <a href="#"><span>Admin</span></a> in <a href="#"><span>Samples</span></a><br />\\r\\n                    22 December 2020\\r\\n\\t\\t\\t\\t</div> \\r\\n                <div class="more_button"><a href="#">View All</a></div>                                              \\r\\n\\r\\n\\t\\t\\t</div>\\r\\n\\t\\t</div>\\r\\n        <div id="templatemo_right_column">\\r\\n\\t\\t\', escape=False)\nresponse.write(\'\\r\\n\\t\\t</div>\\r\\n    </div>\\r\\n\\t<div id="templatemo_footer">\\r\\n        <a href="#">Home</a> | <a href="#">Releases</a> | <a href="#">Music</a> | <a href="#">Top10</a> | <a href="#">Biography</a> | <a href="#">Photos</a>| <a href="#">Events</a> | <a href="#">About</a> | <a href="#">Contact</a><br />\\r\\n        Copyright \\xc2\\xa9 <a href="#"><strong>MSKU</strong></a>\\r\\n\\t</div>\\r\\n</div>\\r\\n  <!--  Designed by w w w . t e m p l a t e m o . c o m  --> \\r\\n<!-- templatemo 047 music -->\\r\\n<!-- \\r\\nMusic Template \\r\\nhttp://www.templatemo.com/preview/templatemo_047_music \\r\\n-->\\r\\n</body>\\r\\n</html>\\r\\n\', escape=False)'
p7
sS'snapshot'
p8
(dp9
S'exception'
p10
(dp11
S'__hash__'
p12
S"<method-wrapper '__hash__' of exceptions.AttributeError object>"
p13
sS'__setattr__'
p14
S"<method-wrapper '__setattr__' of exceptions.AttributeError object>"
p15
sS'__reduce_ex__'
p16
S'<built-in method __reduce_ex__ of exceptions.AttributeError object>'
p17
sS'__getslice__'
p18
S"<method-wrapper '__getslice__' of exceptions.AttributeError object>"
p19
sS'__getitem__'
p20
S"<method-wrapper '__getitem__' of exceptions.AttributeError object>"
p21
sS'__setstate__'
p22
S'<built-in method __setstate__ of exceptions.AttributeError object>'
p23
sS'__reduce__'
p24
S'<built-in method __reduce__ of exceptions.AttributeError object>'
p25
sS'__str__'
p26
S"<method-wrapper '__str__' of exceptions.AttributeError object>"
p27
sS'__format__'
p28
S'<built-in method __format__ of exceptions.AttributeError object>'
p29
sS'__getattribute__'
p30
S"<method-wrapper '__getattribute__' of exceptions.AttributeError object>"
p31
sS'__class__'
p32
S"<type 'exceptions.AttributeError'>"
p33
sS'__unicode__'
p34
S'<built-in method __unicode__ of exceptions.AttributeError object>'
p35
sS'__delattr__'
p36
S"<method-wrapper '__delattr__' of exceptions.AttributeError object>"
p37
sS'__subclasshook__'
p38
S'<built-in method __subclasshook__ of type object>'
p39
sS'__repr__'
p40
S"<method-wrapper '__repr__' of exceptions.AttributeError object>"
p41
sS'args'
p42
S'("\'NoneType\' object has no attribute \'replace\'",)'
p43
sS'__dict__'
p44
S'{}'
p45
sS'__sizeof__'
p46
S'<built-in method __sizeof__ of exceptions.AttributeError object>'
p47
sS'__doc__'
p48
S"'Attribute not found.'"
p49
sS'__init__'
p50
S"<method-wrapper '__init__' of exceptions.AttributeError object>"
p51
sS'__new__'
p52
S'<built-in method __new__ of type object>'
p53
ssS'evalue'
p54
S"'NoneType' object has no attribute 'replace'"
p55
sS'request'
p56
cgluon.html
XML_unpickle
p57
(S's\x8b^\x00\x00<div><table><tr><td style="font-weight:bold;vertical-align:top;">ajax</td><td style="vertical-align:top;">:</td><td><div>False</div></td></tr><tr><td style="font-weight:bold;vertical-align:top;">application</td><td style="vertical-align:top;">:</td><td><div>MusicProject</div></td></tr><tr><td style="font-weight:bold;vertical-align:top;">args</td><td style="vertical-align:top;">:</td><td><div><table></table></div></td></tr><tr><td style="font-weight:bold;vertical-align:top;">cid</td><td style="vertical-align:top;">:</td><td><div>None</div></td></tr><tr><td style="font-weight:bold;vertical-align:top;">client</td><td style="vertical-align:top;">:</td><td><div>127.0.0.1</div></td></tr><tr><td style="font-weight:bold;vertical-align:top;">controller</td><td style="vertical-align:top;">:</td><td><div>default</div></td></tr><tr><td style="font-weight:bold;vertical-align:top;">cookies</td><td style="vertical-align:top;">:</td><td><div><table><tr><td style="font-weight:bold;vertical-align:top;">session_id_admin</td><td style="vertical-align:top;">:</td><td><div>127.0.0.1-2f6e9925-f18c-4bc8-b93a-0fcf555a803f<table><tr><td style="font-weight:bold;vertical-align:top;">comment</td><td style="vertical-align:top;">:</td><td><div></div></td></tr><tr><td style="font-weight:bold;vertical-align:top;">domain</td><td style="vertical-align:top;">:</td><td><div></div></td></tr><tr><td style="font-weight:bold;vertical-align:top;">expires</td><td style="vertical-align:top;">:</td><td><div></div></td></tr><tr><td style="font-weight:bold;vertical-align:top;">httponly</td><td style="vertical-align:top;">:</td><td><div></div></td></tr><tr><td style="font-weight:bold;vertical-align:top;">max-age</td><td style="vertical-align:top;">:</td><td><div></div></td></tr><tr><td style="font-weight:bold;vertical-align:top;">path</td><td style="vertical-align:top;">:</td><td><div></div></td></tr><tr><td style="font-weight:bold;vertical-align:top;">secure</td><td style="vertical-align:top;">:</td><td><div></div></td></tr><tr><td style="font-weight:bold;vertical-align:top;">version</td><td style="vertical-align:top;">:</td><td><div></div></td></tr></table></div></td></tr><tr><td style="font-weight:bold;vertical-align:top;">session_id_musicproject</td><td style="vertical-align:top;">:</td><td><div>127.0.0.1-040df29e-972c-49e6-a2a4-cf07c004850e<table><tr><td style="font-weight:bold;vertical-align:top;">comment</td><td style="vertical-align:top;">:</td><td><div></div></td></tr><tr><td style="font-weight:bold;vertical-align:top;">domain</td><td style="vertical-align:top;">:</td><td><div></div></td></tr><tr><td style="font-weight:bold;vertical-align:top;">expires</td><td style="vertical-align:top;">:</td><td><div></div></td></tr><tr><td style="font-weight:bold;vertical-align:top;">httponly</td><td style="vertical-align:top;">:</td><td><div></div></td></tr><tr><td style="font-weight:bold;vertical-align:top;">max-age</td><td style="vertical-align:top;">:</td><td><div></div></td></tr><tr><td style="font-weight:bold;vertical-align:top;">path</td><td style="vertical-align:top;">:</td><td><div></div></td></tr><tr><td style="font-weight:bold;vertical-align:top;">secure</td><td style="vertical-align:top;">:</td><td><div></div></td></tr><tr><td style="font-weight:bold;vertical-align:top;">version</td><td style="vertical-align:top;">:</td><td><div></div></td></tr></table></div></td></tr><tr><td style="font-weight:bold;vertical-align:top;">session_id_welcome</td><td style="vertical-align:top;">:</td><td><div>127.0.0.1-d4d930ab-6487-4001-961c-f3d294f8449f<table><tr><td style="font-weight:bold;vertical-align:top;">comment</td><td style="vertical-align:top;">:</td><td><div></div></td></tr><tr><td style="font-weight:bold;vertical-align:top;">domain</td><td style="vertical-align:top;">:</td><td><div></div></td></tr><tr><td style="font-weight:bold;vertical-align:top;">expires</td><td style="vertical-align:top;">:</td><td><div></div></td></tr><tr><td style="font-weight:bold;vertical-align:top;">httponly</td><td style="vertical-align:top;">:</td><td><div></div></td></tr><tr><td style="font-weight:bold;vertical-align:top;">max-age</td><td style="vertical-align:top;">:</td><td><div></div></td></tr><tr><td style="font-weight:bold;vertical-align:top;">path</td><td style="vertical-align:top;">:</td><td><div></div></td></tr><tr><td style="font-weight:bold;vertical-align:top;">secure</td><td style="vertical-align:top;">:</td><td><div></div></td></tr><tr><td style="font-weight:bold;vertical-align:top;">version</td><td style="vertical-align:top;">:</td><td><div></div></td></tr></table></div></td></tr></table></div></td></tr><tr><td style="font-weight:bold;vertical-align:top;">env</td><td style="vertical-align:top;">:</td><td><div><table><tr><td style="font-weight:bold;vertical-align:top;">HTTP_ACCEPT</td><td style="vertical-align:top;">:</td><td><div>text/html,application/xhtml+xml,application/xml;q=0.9,image/webp,*/*;q=0.8</div></td></tr><tr><td style="font-weight:bold;vertical-align:top;">HTTP_ACCEPT_ENCODING</td><td style="vertical-align:top;">:</td><td><div>gzip, deflate, sdch</div></td></tr><tr><td style="font-weight:bold;vertical-align:top;">HTTP_ACCEPT_LANGUAGE</td><td style="vertical-align:top;">:</td><td><div>tr-TR,tr;q=0.8,en-US;q=0.6,en;q=0.4</div></td></tr><tr><td style="font-weight:bold;vertical-align:top;">HTTP_CACHE_CONTROL</td><td style="vertical-align:top;">:</td><td><div>max-age=0</div></td></tr><tr><td style="font-weight:bold;vertical-align:top;">HTTP_CONNECTION</td><td style="vertical-align:top;">:</td><td><div>keep-alive</div></td></tr><tr><td style="font-weight:bold;vertical-align:top;">HTTP_COOKIE</td><td style="vertical-align:top;">:</td><td><div>session_id_musicproject=127.0.0.1-040df29e-972c-49e6-a2a4-cf07c004850e; session_id_admin=127.0.0.1-2f6e9925-f18c-4bc8-b93a-0fcf555a803f; session_id_welcome=127.0.0.1-d4d930ab-6487-4001-961c-f3d294f8449f</div></td></tr><tr><td style="font-weight:bold;vertical-align:top;">HTTP_HOST</td><td style="vertical-align:top;">:</td><td><div>127.0.0.1:8000</div></td></tr><tr><td style="font-weight:bold;vertical-align:top;">HTTP_REFERER</td><td style="vertical-align:top;">:</td><td><div>http://127.0.0.1:8000/MusicProject/default/top</div></td></tr><tr><td style="font-weight:bold;vertical-align:top;">HTTP_UPGRADE_INSECURE_REQUESTS</td><td style="vertical-align:top;">:</td><td><div>1</div></td></tr><tr><td style="font-weight:bold;vertical-align:top;">HTTP_USER_AGENT</td><td style="vertical-align:top;">:</td><td><div>Mozilla/5.0 (Windows NT 6.1; WOW64) AppleWebKit/537.36 (KHTML, like Gecko) Chrome/47.0.2526.73 Safari/537.36</div></td></tr><tr><td style="font-weight:bold;vertical-align:top;">PATH_INFO</td><td style="vertical-align:top;">:</td><td><div>/MusicProject/default/top</div></td></tr><tr><td style="font-weight:bold;vertical-align:top;">QUERY_STRING</td><td style="vertical-align:top;">:</td><td><div></div></td></tr><tr><td style="font-weight:bold;vertical-align:top;">REMOTE_ADDR</td><td style="vertical-align:top;">:</td><td><div>127.0.0.1</div></td></tr><tr><td style="font-weight:bold;vertical-align:top;">REMOTE_PORT</td><td style="vertical-align:top;">:</td><td><div>50550</div></td></tr><tr><td style="font-weight:bold;vertical-align:top;">REQUEST_METHOD</td><td style="vertical-align:top;">:</td><td><div>GET</div></td></tr><tr><td style="font-weight:bold;vertical-align:top;">SCRIPT_NAME</td><td style="vertical-align:top;">:</td><td><div></div></td></tr><tr><td style="font-weight:bold;vertical-align:top;">SERVER_NAME</td><td style="vertical-align:top;">:</td><td><div>pc</div></td></tr><tr><td style="font-weight:bold;vertical-align:top;">SERVER_PORT</td><td style="vertical-align:top;">:</td><td><div>8000</div></td></tr><tr><td style="font-weight:bold;vertical-align:top;">SERVER_PROTOCOL</td><td style="vertical-align:top;">:</td><td><div>HTTP/1.1</div></td></tr><tr><td style="font-weight:bold;vertical-align:top;">SERVER_SOFTWARE</td><td style="vertical-align:top;">:</td><td><div>Rocket 1.2.6</div></td></tr><tr><td style="font-weight:bold;vertical-align:top;">app_folders</td><td style="vertical-align:top;">:</td><td><div>set([&#x27;C:\\\\Users\\\\w\\xfdn 7\\\\Desktop\\\\web2py\\\\applications\\\\admin\\\\&#x27;, &#x27;C:\\\\Users\\\\w\\xfdn 7\\\\Desktop\\\\web2py\\\\applications\\\\welcome\\\\&#x27;, &#x27;C:\\\\Users\\\\w\\xfdn 7\\\\Desktop\\\\web2py\\\\applications\\\\MusicProject\\\\&#x27;])</div></td></tr><tr><td style="font-weight:bold;vertical-align:top;">applications_parent</td><td style="vertical-align:top;">:</td><td><div>C:\\Users\\w\xfdn 7\\Desktop\\web2py</div></td></tr><tr><td style="font-weight:bold;vertical-align:top;">cmd_args</td><td style="vertical-align:top;">:</td><td><div><table></table></div></td></tr><tr><td style="font-weight:bold;vertical-align:top;">cmd_options</td><td style="vertical-align:top;">:</td><td><div>&lt;Values at 0x2fda350: {&#x27;verbose&#x27;: False, &#x27;ip&#x27;: &#x27;127.0.0.1&#x27;, &#x27;debuglevel&#x27;: 30, &#x27;with_scheduler&#x27;: False, &#x27;ips&#x27;: [&#x27;fe80::1029:c6b5:fda0:12ec%14&#x27;, &#x27;172.16.156.244&#x27;], &#x27;shutdown_timeout&#x27;: 5, &#x27;taskbar&#x27;: False, &#x27;with_coverage&#x27;: False, &#x27;scheduler_groups&#x27;: None, &#x27;port&#x27;: 8000, &#x27;maxthreads&#x27;: None, &#x27;softcron&#x27;: False, &#x27;server_name&#x27;: &#x27;pc&#x27;, &#x27;bpython&#x27;: False, &#x27;nogui&#x27;: False, &#x27;pid_filename&#x27;: &#x27;httpserver.pid&#x27;, &#x27;print_errors&#x27;: False, &#x27;extcron&#x27;: False, &#x27;runcron&#x27;: False, &#x27;run_system_tests&#x27;: False, &#x27;test&#x27;: None, &#x27;folder&#x27;: &#x27;C:\\\\Users\\\\w\\xfdn 7\\\\Desktop\\\\web2py&#x27;, &#x27;config&#x27;: &#x27;&#x27;, &#x27;minthreads&#x27;: None, &#x27;shell&#x27;: None, &#x27;run&#x27;: &#x27;&#x27;, &#x27;log_filename&#x27;: &#x27;httpserver.log&#x27;, &#x27;profiler_dir&#x27;: None, &#x27;args&#x27;: [&#x27;&#x27;], &#x27;socket_timeout&#x27;: 5, &#x27;ssl_ca_certificate&#x27;: None, &#x27;scheduler&#x27;: None, &#x27;interfaces&#x27;: None, &#x27;ssl_private_key&#x27;: &#x27;&#x27;, &#x27;gae&#x27;: None, &#x27;password&#x27;: &#x27;&lt;ask&gt;&#x27;, &#x27;request_queue_size&#x27;: 5, &#x27;ssl_certificate&#x27;: &#x27;&#x27;, &#x27;cronjob&#x27;: False, &#x27;numthreads&#x27;: None, &#x27;quiet&#x27;: False, &#x27;import_models&#x27;: False, &#x27;timeout&#x27;: 10, &#x27;plain&#x27;: False, &#x27;nobanner&#x27;: False}&gt;</div></td></tr><tr><td style="font-weight:bold;vertical-align:top;">db_sessions</td><td style="vertical-align:top;">:</td><td><div>set([])</div></td></tr><tr><td style="font-weight:bold;vertical-align:top;">debugging</td><td style="vertical-align:top;">:</td><td><div>False</div></td></tr><tr><td style="font-weight:bold;vertical-align:top;">gluon_parent</td><td style="vertical-align:top;">:</td><td><div>C:\\Users\\w\xfdn 7\\Desktop\\web2py</div></td></tr><tr><td style="font-weight:bold;vertical-align:top;">http_accept</td><td style="vertical-align:top;">:</td><td><div>text/html,application/xhtml+xml,application/xml;q=0.9,image/webp,*/*;q=0.8</div></td></tr><tr><td style="font-weight:bold;vertical-align:top;">http_accept_encoding</td><td style="vertical-align:top;">:</td><td><div>gzip, deflate, sdch</div></td></tr><tr><td style="font-weight:bold;vertical-align:top;">http_accept_language</td><td style="vertical-align:top;">:</td><td><div>tr-TR,tr;q=0.8,en-US;q=0.6,en;q=0.4</div></td></tr><tr><td style="font-weight:bold;vertical-align:top;">http_cache_control</td><td style="vertical-align:top;">:</td><td><div>max-age=0</div></td></tr><tr><td style="font-weight:bold;vertical-align:top;">http_connection</td><td style="vertical-align:top;">:</td><td><div>keep-alive</div></td></tr><tr><td style="font-weight:bold;vertical-align:top;">http_cookie</td><td style="vertical-align:top;">:</td><td><div>session_id_musicproject=127.0.0.1-040df29e-972c-49e6-a2a4-cf07c004850e; session_id_admin=127.0.0.1-2f6e9925-f18c-4bc8-b93a-0fcf555a803f; session_id_welcome=127.0.0.1-d4d930ab-6487-4001-961c-f3d294f8449f</div></td></tr><tr><td style="font-weight:bold;vertical-align:top;">http_host</td><td style="vertical-align:top;">:</td><td><div>127.0.0.1:8000</div></td></tr><tr><td style="font-weight:bold;vertical-align:top;">http_referer</td><td style="vertical-align:top;">:</td><td><div>http://127.0.0.1:8000/MusicProject/default/top</div></td></tr><tr><td style="font-weight:bold;vertical-align:top;">http_upgrade_insecure_requests</td><td style="vertical-align:top;">:</td><td><div>1</div></td></tr><tr><td style="font-weight:bold;vertical-align:top;">http_user_agent</td><td style="vertical-align:top;">:</td><td><div>Mozilla/5.0 (Windows NT 6.1; WOW64) AppleWebKit/537.36 (KHTML, like Gecko) Chrome/47.0.2526.73 Safari/537.36</div></td></tr><tr><td style="font-weight:bold;vertical-align:top;">is_jython</td><td style="vertical-align:top;">:</td><td><div>False</div></td></tr><tr><td style="font-weight:bold;vertical-align:top;">is_pypy</td><td style="vertical-align:top;">:</td><td><div>False</div></td></tr><tr><td style="font-weight:bold;vertical-align:top;">is_source</td><td style="vertical-align:top;">:</td><td><div>False</div></td></tr><tr><td style="font-weight:bold;vertical-align:top;">local_hosts</td><td style="vertical-align:top;">:</td><td><div><table><tr><td><div>fe80::1029:c6b5:fda0:12ec%14</div></td></tr><tr><td><div>::ffff:127.0.0.1</div></td></tr><tr><td><div>::1</div></td></tr><tr><td><div>pc</div></td></tr><tr><td><div>172.16.156.244</div></td></tr><tr><td><div>127.0.0.1</div></td></tr></table></div></td></tr><tr><td style="font-weight:bold;vertical-align:top;">path_info</td><td style="vertical-align:top;">:</td><td><div>/MusicProject/default/top</div></td></tr><tr><td style="font-weight:bold;vertical-align:top;">query_string</td><td style="vertical-align:top;">:</td><td><div></div></td></tr><tr><td style="font-weight:bold;vertical-align:top;">remote_addr</td><td style="vertical-align:top;">:</td><td><div>127.0.0.1</div></td></tr><tr><td style="font-weight:bold;vertical-align:top;">remote_port</td><td style="vertical-align:top;">:</td><td><div>50550</div></td></tr><tr><td style="font-weight:bold;vertical-align:top;">request_method</td><td style="vertical-align:top;">:</td><td><div>GET</div></td></tr><tr><td style="font-weight:bold;vertical-align:top;">request_uri</td><td style="vertical-align:top;">:</td><td><div>/MusicProject/default/top</div></td></tr><tr><td style="font-weight:bold;vertical-align:top;">script_name</td><td style="vertical-align:top;">:</td><td><div></div></td></tr><tr><td style="font-weight:bold;vertical-align:top;">server_name</td><td style="vertical-align:top;">:</td><td><div>pc</div></td></tr><tr><td style="font-weight:bold;vertical-align:top;">server_port</td><td style="vertical-align:top;">:</td><td><div>8000</div></td></tr><tr><td style="font-weight:bold;vertical-align:top;">server_protocol</td><td style="vertical-align:top;">:</td><td><div>HTTP/1.1</div></td></tr><tr><td style="font-weight:bold;vertical-align:top;">server_software</td><td style="vertical-align:top;">:</td><td><div>Rocket 1.2.6</div></td></tr><tr><td style="font-weight:bold;vertical-align:top;">web2py_path</td><td style="vertical-align:top;">:</td><td><div>C:\\Users\\w\xfdn 7\\Desktop\\web2py</div></td></tr><tr><td style="font-weight:bold;vertical-align:top;">web2py_version</td><td style="vertical-align:top;">:</td><td><div>2.12.3-stable+timestamp.2015.08.19.00.18.03</div></td></tr><tr><td style="font-weight:bold;vertical-align:top;">wsgi.errors</td><td style="vertical-align:top;">:</td><td><div>&lt;open file &#x27;&lt;stderr&gt;&#x27;, mode &#x27;w&#x27; at 0x01CDD0D0&gt;</div></td></tr><tr><td style="font-weight:bold;vertical-align:top;">wsgi.file_wrapper</td><td style="vertical-align:top;">:</td><td><div>&lt;class wsgiref.util.FileWrapper at 0x031D5AE8&gt;</div></td></tr><tr><td style="font-weight:bold;vertical-align:top;">wsgi.input</td><td style="vertical-align:top;">:</td><td><div>&lt;socket._fileobject object at 0x043942F0&gt;</div></td></tr><tr><td style="font-weight:bold;vertical-align:top;">wsgi.multiprocess</td><td style="vertical-align:top;">:</td><td><div>False</div></td></tr><tr><td style="font-weight:bold;vertical-align:top;">wsgi.multithread</td><td style="vertical-align:top;">:</td><td><div>True</div></td></tr><tr><td style="font-weight:bold;vertical-align:top;">wsgi.run_once</td><td style="vertical-align:top;">:</td><td><div>False</div></td></tr><tr><td style="font-weight:bold;vertical-align:top;">wsgi.url_scheme</td><td style="vertical-align:top;">:</td><td><div>http</div></td></tr><tr><td style="font-weight:bold;vertical-align:top;">wsgi.version</td><td style="vertical-align:top;">:</td><td><div><table><tr><td><div>1</div></td></tr><tr><td><div>0</div></td></tr></table></div></td></tr><tr><td style="font-weight:bold;vertical-align:top;">wsgi_errors</td><td style="vertical-align:top;">:</td><td><div>&lt;open file &#x27;&lt;stderr&gt;&#x27;, mode &#x27;w&#x27; at 0x01CDD0D0&gt;</div></td></tr><tr><td style="font-weight:bold;vertical-align:top;">wsgi_file_wrapper</td><td style="vertical-align:top;">:</td><td><div>&lt;class wsgiref.util.FileWrapper at 0x031D5AE8&gt;</div></td></tr><tr><td style="font-weight:bold;vertical-align:top;">wsgi_input</td><td style="vertical-align:top;">:</td><td><div>&lt;socket._fileobject object at 0x043942F0&gt;</div></td></tr><tr><td style="font-weight:bold;vertical-align:top;">wsgi_multiprocess</td><td style="vertical-align:top;">:</td><td><div>False</div></td></tr><tr><td style="font-weight:bold;vertical-align:top;">wsgi_multithread</td><td style="vertical-align:top;">:</td><td><div>True</div></td></tr><tr><td style="font-weight:bold;vertical-align:top;">wsgi_run_once</td><td style="vertical-align:top;">:</td><td><div>False</div></td></tr><tr><td style="font-weight:bold;vertical-align:top;">wsgi_url_scheme</td><td style="vertical-align:top;">:</td><td><div>http</div></td></tr><tr><td style="font-weight:bold;vertical-align:top;">wsgi_version</td><td style="vertical-align:top;">:</td><td><div><table><tr><td><div>1</div></td></tr><tr><td><div>0</div></td></tr></table></div></td></tr></table></div></td></tr><tr><td style="font-weight:bold;vertical-align:top;">extension</td><td style="vertical-align:top;">:</td><td><div>html</div></td></tr><tr><td style="font-weight:bold;vertical-align:top;">folder</td><td style="vertical-align:top;">:</td><td><div>C:\\Users\\w\xfdn 7\\Desktop\\web2py\\applications\\MusicProject\\</div></td></tr><tr><td style="font-weight:bold;vertical-align:top;">function</td><td style="vertical-align:top;">:</td><td><div>top</div></td></tr><tr><td style="font-weight:bold;vertical-align:top;">global_settings</td><td style="vertical-align:top;">:</td><td><div><table><tr><td style="font-weight:bold;vertical-align:top;">app_folders</td><td style="vertical-align:top;">:</td><td><div>set([&#x27;C:\\\\Users\\\\w\\xfdn 7\\\\Desktop\\\\web2py\\\\applications\\\\admin\\\\&#x27;, &#x27;C:\\\\Users\\\\w\\xfdn 7\\\\Desktop\\\\web2py\\\\applications\\\\welcome\\\\&#x27;, &#x27;C:\\\\Users\\\\w\\xfdn 7\\\\Desktop\\\\web2py\\\\applications\\\\MusicProject\\\\&#x27;])</div></td></tr><tr><td style="font-weight:bold;vertical-align:top;">applications_parent</td><td style="vertical-align:top;">:</td><td><div>C:\\Users\\w\xfdn 7\\Desktop\\web2py</div></td></tr><tr><td style="font-weight:bold;vertical-align:top;">cmd_args</td><td style="vertical-align:top;">:</td><td><div><table></table></div></td></tr><tr><td style="font-weight:bold;vertical-align:top;">cmd_options</td><td style="vertical-align:top;">:</td><td><div>&lt;Values at 0x2fda350: {&#x27;verbose&#x27;: False, &#x27;ip&#x27;: &#x27;127.0.0.1&#x27;, &#x27;debuglevel&#x27;: 30, &#x27;with_scheduler&#x27;: False, &#x27;ips&#x27;: [&#x27;fe80::1029:c6b5:fda0:12ec%14&#x27;, &#x27;172.16.156.244&#x27;], &#x27;shutdown_timeout&#x27;: 5, &#x27;taskbar&#x27;: False, &#x27;with_coverage&#x27;: False, &#x27;scheduler_groups&#x27;: None, &#x27;port&#x27;: 8000, &#x27;maxthreads&#x27;: None, &#x27;softcron&#x27;: False, &#x27;server_name&#x27;: &#x27;pc&#x27;, &#x27;bpython&#x27;: False, &#x27;nogui&#x27;: False, &#x27;pid_filename&#x27;: &#x27;httpserver.pid&#x27;, &#x27;print_errors&#x27;: False, &#x27;extcron&#x27;: False, &#x27;runcron&#x27;: False, &#x27;run_system_tests&#x27;: False, &#x27;test&#x27;: None, &#x27;folder&#x27;: &#x27;C:\\\\Users\\\\w\\xfdn 7\\\\Desktop\\\\web2py&#x27;, &#x27;config&#x27;: &#x27;&#x27;, &#x27;minthreads&#x27;: None, &#x27;shell&#x27;: None, &#x27;run&#x27;: &#x27;&#x27;, &#x27;log_filename&#x27;: &#x27;httpserver.log&#x27;, &#x27;profiler_dir&#x27;: None, &#x27;args&#x27;: [&#x27;&#x27;], &#x27;socket_timeout&#x27;: 5, &#x27;ssl_ca_certificate&#x27;: None, &#x27;scheduler&#x27;: None, &#x27;interfaces&#x27;: None, &#x27;ssl_private_key&#x27;: &#x27;&#x27;, &#x27;gae&#x27;: None, &#x27;password&#x27;: &#x27;&lt;ask&gt;&#x27;, &#x27;request_queue_size&#x27;: 5, &#x27;ssl_certificate&#x27;: &#x27;&#x27;, &#x27;cronjob&#x27;: False, &#x27;numthreads&#x27;: None, &#x27;quiet&#x27;: False, &#x27;import_models&#x27;: False, &#x27;timeout&#x27;: 10, &#x27;plain&#x27;: False, &#x27;nobanner&#x27;: False}&gt;</div></td></tr><tr><td style="font-weight:bold;vertical-align:top;">db_sessions</td><td style="vertical-align:top;">:</td><td><div>set([])</div></td></tr><tr><td style="font-weight:bold;vertical-align:top;">debugging</td><td style="vertical-align:top;">:</td><td><div>False</div></td></tr><tr><td style="font-weight:bold;vertical-align:top;">gluon_parent</td><td style="vertical-align:top;">:</td><td><div>C:\\Users\\w\xfdn 7\\Desktop\\web2py</div></td></tr><tr><td style="font-weight:bold;vertical-align:top;">is_jython</td><td style="vertical-align:top;">:</td><td><div>False</div></td></tr><tr><td style="font-weight:bold;vertical-align:top;">is_pypy</td><td style="vertical-align:top;">:</td><td><div>False</div></td></tr><tr><td style="font-weight:bold;vertical-align:top;">is_source</td><td style="vertical-align:top;">:</td><td><div>False</div></td></tr><tr><td style="font-weight:bold;vertical-align:top;">local_hosts</td><td style="vertical-align:top;">:</td><td><div><table><tr><td><div>fe80::1029:c6b5:fda0:12ec%14</div></td></tr><tr><td><div>::ffff:127.0.0.1</div></td></tr><tr><td><div>::1</div></td></tr><tr><td><div>pc</div></td></tr><tr><td><div>172.16.156.244</div></td></tr><tr><td><div>127.0.0.1</div></td></tr></table></div></td></tr><tr><td style="font-weight:bold;vertical-align:top;">web2py_version</td><td style="vertical-align:top;">:</td><td><div>2.12.3-stable+timestamp.2015.08.19.00.18.03</div></td></tr></table></div></td></tr><tr><td style="font-weight:bold;vertical-align:top;">is_https</td><td style="vertical-align:top;">:</td><td><div>False</div></td></tr><tr><td style="font-weight:bold;vertical-align:top;">is_local</td><td style="vertical-align:top;">:</td><td><div>True</div></td></tr><tr><td style="font-weight:bold;vertical-align:top;">is_restful</td><td style="vertical-align:top;">:</td><td><div>False</div></td></tr><tr><td style="font-weight:bold;vertical-align:top;">is_sheduler</td><td style="vertical-align:top;">:</td><td><div>None</div></td></tr><tr><td style="font-weight:bold;vertical-align:top;">is_shell</td><td style="vertical-align:top;">:</td><td><div>None</div></td></tr><tr><td style="font-weight:bold;vertical-align:top;">now</td><td style="vertical-align:top;">:</td><td><div>datetime.datetime(2015, 12, 8, 17, 1, 15, 408000)</div></td></tr><tr><td style="font-weight:bold;vertical-align:top;">raw_args</td><td style="vertical-align:top;">:</td><td><div></div></td></tr><tr><td style="font-weight:bold;vertical-align:top;">raw_extension</td><td style="vertical-align:top;">:</td><td><div>None</div></td></tr><tr><td style="font-weight:bold;vertical-align:top;">url</td><td style="vertical-align:top;">:</td><td><div>/MusicProject/default/top</div></td></tr><tr><td style="font-weight:bold;vertical-align:top;">utcnow</td><td style="vertical-align:top;">:</td><td><div>datetime.datetime(2015, 12, 8, 15, 1, 15, 408000)</div></td></tr><tr><td style="font-weight:bold;vertical-align:top;">wsgi</td><td style="vertical-align:top;">:</td><td><div>&lt;gluon.main.LazyWSGI object at 0x0445DC90&gt;</div></td></tr></table></div>'
tRp58
sS'frames'
p59
(lp60
(dp61
S'file'
p62
S'C:\\Users\\w\xfdn 7\\Desktop\\web2py\\gluon\\restricted.py'
p63
sS'dump'
p64
(dp65
S'environment'
p66
S"{'A': <class 'gluon.html.A'>, 'ANY_OF': <class 'gluon.validators.ANY_OF'>, 'ASSIGNJS': <function ASSIGNJS>, 'AppConfig': <function AppConfig>, 'Auth': <class 'gluon.tools.Auth'>, 'B': <class 'gluon.html.B'>, 'BEAUTIFY': <class 'gluon.html.BEAUTIFY'>, 'BODY': <class 'gluon.html.BODY'>, 'BR': <class 'gluon.html.BR'>, 'BUTTON': <class 'gluon.html.BUTTON'>, ...}"
p67
sS'ccode'
p68
S'<code object <module> at 046E1C38, file "C:\\User...ons\\MusicProject\\views\\default/top.html", line 1>'
p69
ssS'lnum'
p70
I227
sS'lines'
p71
(dp72
I224
S'            ccode = code'
p73
sI225
S'        else:'
p74
sI226
S'            ccode = compile2(code, layer)'
p75
sI227
S'        exec ccode in environment'
p76
sI228
S'    except HTTP:'
p77
sI229
S'        raise'
p78
sI230
S'    except RestrictedError:'
p79
sI231
S'        # do not encapsulate (obfuscate) the original RestrictedError'
p80
sI222
S'    try:'
p81
sI223
S'        if isinstance(code, types.CodeType):'
p82
ssS'call'
p83
S'(code=\'response.write(\\\'<!DOCTYPE html PUBLIC "-//W3C//D...\\\\r\\\\n-->\\\\r\\\\n</body>\\\\r\\\\n</html>\\\\r\\\\n\\\', escape=False)\', environment={\'A\': <class \'gluon.html.A\'>, \'ANY_OF\': <class \'gluon.validators.ANY_OF\'>, \'ASSIGNJS\': <function ASSIGNJS>, \'AppConfig\': <function AppConfig>, \'Auth\': <class \'gluon.tools.Auth\'>, \'B\': <class \'gluon.html.B\'>, \'BEAUTIFY\': <class \'gluon.html.BEAUTIFY\'>, \'BODY\': <class \'gluon.html.BODY\'>, \'BR\': <class \'gluon.html.BR\'>, \'BUTTON\': <class \'gluon.html.BUTTON\'>, ...}, layer=\'C:\\\\Users\\\\w\\xfdn 7\\\\Desktop\\\\web2py\\\\applications\\\\MusicProject\\\\views\\\\default/top.html\')'
p84
sS'func'
p85
S'restricted'
p86
sa(dp87
g62
S'C:\\Users\\w\xfdn 7\\Desktop\\web2py\\applications\\MusicProject\\views\\default\\top.html'
p88
sg64
(dp89
sg70
I4
sg71
(dp90
I1
S'response.write(\'<!DOCTYPE html PUBLIC "-//W3C//DTD XHTML 1.0 Transitional//EN" "http://www.w3.org/TR/xhtml1/DTD/xhtml1-transitional.dtd">\\r\\n<html xmlns="http://www.w3.org/1999/xhtml">\\r\\n<head>\\r\\n<meta http-equiv="Content-Type" content="text/html; charset=utf-8" />\\r\\n<meta name="keywords" content="" />\\r\\n<meta name="description" content="" />\\r\\n<link href="\', escape=False)'
p91
sI2
S"response.write(URL('static','css/templatemo_style.css'))"
p92
sI3
S'response.write(\'" rel="stylesheet" type="text/css" />\\r\\n</head>\\r\\n<body>\\r\\n\\r\\n<div id="templatemo_container">\\r\\n\\r\\n\\t<div id="templatemo_header">\\r\\n    \\t<div id="templatemo_title">\\r\\n            <div id="templatemo_sitetitle">Music <span>Layout</span></div>\\r\\n        </div>\\r\\n    </div>\\r\\n\\r\\n\\t<div id="templatemo_banner">\\r\\n       \\t<div id="templatemo_banner_text">\\r\\n            <div id="banner_title">Welcome To Music Store</div>\\r\\n            <p>\\r\\n\\t\\t\\t<h3>\\r\\n\\t\\t\\tWelcome to the online home of the music department at MSKU University. This website is done by Mugla university students Doreen and Damla from the Computer department and we \\r\\n\\t\\t\\thope that you like it and if you need to reach us our contacts are as in the about page.  <3 <3 <3 <3  </h3></p>\\r\\n            <div class="more_button"><a href="#">Read More</a></div>\\r\\n    \\t</div>\\r\\n\\t</div>\\r\\n    \\r\\n    <div id="templatemo_menu">\\r\\n     \\t<ul>\\r\\n\\t\\t\\t<li><a href="/MusicProject/default/index" class="current">Main Page</a></li>\\r\\n\\t\\t\\t<li><a href="/MusicProject/default/NewReleases">New Releases</a></li>\\r\\n            <li><a href="/MusicProject/default/music">Albums</a></li>\\r\\n            <li><a href="/MusicProject/default/top">Top 10 Songs</a></li>\\r\\n            <li><a href="/MusicProject/default/bio">Biography</a></li>\\r\\n            <li><a href="/MusicProject/default/photos">Photos</a></li>\\r\\n            <li><a href="/MusicProject/default/events">Events</a></li>\\r\\n            <li><a href="/MusicProject/default/about" class="lastmenu">About Us</a></li>\\r\\n        </ul>\\r\\n    </div>\\r\\n\\r\\n    <div id="templatemo_content">\\r\\n    \\t<div id="templatemo_left_column">\\r\\n            <div class="left_col_box">\\r\\n\\t\\t\\t</div>\\r\\n\\t\\t\\t<div class="login">\\r\\n\\t\\t\\t<h2>\\r\\n\\t\\t\\t\', escape=False)'
p93
sI4
S"response.write(T('Sign Up') if request.args(0) == 'register' else T('Log In') if request.args(0) == 'login' else T(request.args(0).replace('_',' ').title()))"
p94
sI5
S'response.write(\'\\r\\n\\t\\t\\t</h2>\\r\\n\\t\\t\\t</div>\\r\\n            <h2>News !!!</h2>\\r\\n            <div class="left_col_box">\\r\\n                <div class="blog_box">\\r\\n                    <h3><a href="#">Rihanna Rolls Out \\xe2\\x80\\x9cAnti World Tour\\xe2\\x80\\x9d Schedule!</a></h3>\\r\\n                    Mark your calendars, as Rihanna will begin selling tickets for her forthcoming \\xe2\\x80\\x9cAnti World Tour\\xe2\\x80\\x9d on December 3rd!\\r\\nOn Monday (November 23) the \\xe2\\x80\\x9cWe Found Love\\xe2\\x80\\x9d lady announced she\\xe2\\x80\\x99s hitting the road on February 26th, 2016 along with supporting acts Travis Scott, The Weeknd and Big Sean. <a href="#"><span>Admin</span></a> in <a href="#"><span>Videos</span></a><br />\\r\\n\\t\\t\\t\\t</div>\\r\\n                <div class="blog_box">\\r\\n                    <h3><a href="#">Duis vitae velit sed dui</a></h3>\\r\\n                    Pellentesque vitae magna. Suspendisse vitae neque eget ante tristique vestibulum.<br />\\r\\n                    Posted by <a href="#"><span>Admin</span></a> in <a href="#"><span>Audios</span></a><br />\\r\\n                    20 December 2020\\r\\n\\t\\t\\t\\t</div>\\r\\n                <div class="blog_box">\\r\\n                    <h3><a href="#">Donec mollis aliquet ligula</a></h3>\\r\\n                    Suspendisse vitae neque eget ante tristique vestibulum.<br />\\r\\n                    Posted by <a href="#"><span>Admin</span></a> in <a href="#"><span>Samples</span></a><br />\\r\\n                    22 December 2020\\r\\n\\t\\t\\t\\t</div> \\r\\n                <div class="more_button"><a href="#">View All</a></div>                                              \\r\\n\\r\\n\\t\\t\\t</div>\\r\\n\\t\\t</div>\\r\\n        <div id="templatemo_right_column">\\r\\n\\t\\t\', escape=False)'
p95
sI6
S'response.write(\'\\r\\n\\t\\t</div>\\r\\n    </div>\\r\\n\\t<div id="templatemo_footer">\\r\\n        <a href="#">Home</a> | <a href="#">Releases</a> | <a href="#">Music</a> | <a href="#">Top10</a> | <a href="#">Biography</a> | <a href="#">Photos</a>| <a href="#">Events</a> | <a href="#">About</a> | <a href="#">Contact</a><br />\\r\\n        Copyright \\xc2\\xa9 <a href="#"><strong>MSKU</strong></a>\\r\\n\\t</div>\\r\\n</div>\\r\\n  <!--  Designed by w w w . t e m p l a t e m o . c o m  --> \\r\\n<!-- templatemo 047 music -->\\r\\n<!-- \\r\\nMusic Template \\r\\nhttp://www.templatemo.com/preview/templatemo_047_music \\r\\n-->\\r\\n</body>\\r\\n</html>\\r\\n\', escape=False)'
p96
ssg83
S'()'
p97
sg85
S'<module>'
p98
sasS'pyver'
p99
S'Python 2.7.9: C:\\Users\\w\xfdn 7\\Desktop\\web2py\\web2py.exe (prefix: )'
p100
sS'session'
p101
g57
(S's\x1a\x00\x00\x00<div><table></table></div>'
tRp102
sS'etype'
p103
S"<type 'exceptions.AttributeError'>"
p104
sS'date'
p105
S'Tue Dec 08 17:01:15 2015'
p106
sS'response'
p107
g57
(S's\xf5>\x00\x00<div><table><tr><td style="font-weight:bold;vertical-align:top;">body</td><td style="vertical-align:top;">:</td><td><div>&lt;cStringIO.StringO object at 0x0445DC40&gt;</div></td></tr><tr><td style="font-weight:bold;vertical-align:top;">cookies</td><td style="vertical-align:top;">:</td><td><div><table><tr><td style="font-weight:bold;vertical-align:top;">session_id_musicproject</td><td style="vertical-align:top;">:</td><td><div>127.0.0.1-e983a75c-09cc-47aa-9050-112316fbe82c<table><tr><td style="font-weight:bold;vertical-align:top;">comment</td><td style="vertical-align:top;">:</td><td><div></div></td></tr><tr><td style="font-weight:bold;vertical-align:top;">domain</td><td style="vertical-align:top;">:</td><td><div></div></td></tr><tr><td style="font-weight:bold;vertical-align:top;">expires</td><td style="vertical-align:top;">:</td><td><div></div></td></tr><tr><td style="font-weight:bold;vertical-align:top;">httponly</td><td style="vertical-align:top;">:</td><td><div></div></td></tr><tr><td style="font-weight:bold;vertical-align:top;">max-age</td><td style="vertical-align:top;">:</td><td><div></div></td></tr><tr><td style="font-weight:bold;vertical-align:top;">path</td><td style="vertical-align:top;">:</td><td><div>/</div></td></tr><tr><td style="font-weight:bold;vertical-align:top;">secure</td><td style="vertical-align:top;">:</td><td><div></div></td></tr><tr><td style="font-weight:bold;vertical-align:top;">version</td><td style="vertical-align:top;">:</td><td><div></div></td></tr></table></div></td></tr></table></div></td></tr><tr><td style="font-weight:bold;vertical-align:top;">delimiters</td><td style="vertical-align:top;">:</td><td><div><table><tr><td><div>{{</div></td></tr><tr><td><div>}}</div></td></tr></table></div></td></tr><tr><td style="font-weight:bold;vertical-align:top;">files</td><td style="vertical-align:top;">:</td><td><div><table></table></div></td></tr><tr><td style="font-weight:bold;vertical-align:top;">flash</td><td style="vertical-align:top;">:</td><td><div></div></td></tr><tr><td style="font-weight:bold;vertical-align:top;">form_label_separator</td><td style="vertical-align:top;">:</td><td><div></div></td></tr><tr><td style="font-weight:bold;vertical-align:top;">formstyle</td><td style="vertical-align:top;">:</td><td><div>bootstrap3_inline</div></td></tr><tr><td style="font-weight:bold;vertical-align:top;">generic_patterns</td><td style="vertical-align:top;">:</td><td><div><table><tr><td><div>*</div></td></tr></table></div></td></tr><tr><td style="font-weight:bold;vertical-align:top;">google_analytics_id</td><td style="vertical-align:top;">:</td><td><div>None</div></td></tr><tr><td style="font-weight:bold;vertical-align:top;">headers</td><td style="vertical-align:top;">:</td><td><div><table><tr><td style="font-weight:bold;vertical-align:top;">X-Powered-By</td><td style="vertical-align:top;">:</td><td><div>web2py</div></td></tr></table></div></td></tr><tr><td style="font-weight:bold;vertical-align:top;">logo</td><td style="vertical-align:top;">:</td><td><div><a class="navbar-brand" href="http://www.web2py.com/" id="web2py-logo"><b>web<span>2</span>py</b>&trade;&nbsp;</a></div></td></tr><tr><td style="font-weight:bold;vertical-align:top;">menu</td><td style="vertical-align:top;">:</td><td><div><table><tr><td><div><table><tr><td><div>Anasayfa</div></td></tr><tr><td><div>False</div></td></tr><tr><td><div>/MusicProject/default/index</div></td></tr><tr><td><div><table></table></div></td></tr></table></div></td></tr><tr><td><div><table><tr><td><div>Sitelerim</div></td></tr><tr><td><div>False</div></td></tr><tr><td><div>/admin/default/site</div></td></tr></table></div></td></tr><tr><td><div><table><tr><td><div>Bu Uygulama</div></td></tr><tr><td><div>False</div></td></tr><tr><td><div>#</div></td></tr><tr><td><div><table><tr><td><div><table><tr><td><div>Design</div></td></tr><tr><td><div>False</div></td></tr><tr><td><div>/admin/default/design/MusicProject</div></td></tr></table></div></td></tr><tr><td><div><li class="divider"></li></div></td></tr><tr><td><div><table><tr><td><div>Denet\xc3\xa7i</div></td></tr><tr><td><div>False</div></td></tr><tr><td><div>/admin/default/edit/MusicProject/controllers/default.py</div></td></tr></table></div></td></tr><tr><td><div><table><tr><td><div>G\xc3\xb6r\xc3\xbcn\xc3\xbcm</div></td></tr><tr><td><div>False</div></td></tr><tr><td><div>/admin/default/edit/MusicProject/views/default/top.html</div></td></tr></table></div></td></tr><tr><td><div><table><tr><td><div>DB Modeli</div></td></tr><tr><td><div>False</div></td></tr><tr><td><div>/admin/default/edit/MusicProject/models/db.py</div></td></tr></table></div></td></tr><tr><td><div><table><tr><td><div>Model Men\xc3\xbc</div></td></tr><tr><td><div>False</div></td></tr><tr><td><div>/admin/default/edit/MusicProject/models/menu.py</div></td></tr></table></div></td></tr><tr><td><div><table><tr><td><div>Config.ini</div></td></tr><tr><td><div>False</div></td></tr><tr><td><div>/admin/default/edit/MusicProject/private/appconfig.ini</div></td></tr></table></div></td></tr><tr><td><div><table><tr><td><div>\xc5\x9eablon</div></td></tr><tr><td><div>False</div></td></tr><tr><td><div>/admin/default/edit/MusicProject/views/layout.html</div></td></tr></table></div></td></tr><tr><td><div><table><tr><td><div>Stil \xc5\x9eablonu</div></td></tr><tr><td><div>False</div></td></tr><tr><td><div>/admin/default/edit/MusicProject/static/css/web2py-bootstrap3.css</div></td></tr></table></div></td></tr><tr><td><div><table><tr><td><div>Veritaban\xc4\xb1</div></td></tr><tr><td><div>False</div></td></tr><tr><td><div>/MusicProject/appadmin/index</div></td></tr></table></div></td></tr><tr><td><div><table><tr><td><div>Hatalar</div></td></tr><tr><td><div>False</div></td></tr><tr><td><div>/admin/default/errors/MusicProject</div></td></tr></table></div></td></tr><tr><td><div><table><tr><td><div>Hakk\xc4\xb1nda</div></td></tr><tr><td><div>False</div></td></tr><tr><td><div>/admin/default/about/MusicProject</div></td></tr></table></div></td></tr></table></div></td></tr></table></div></td></tr><tr><td><div><table><tr><td><div>web2py.com</div></td></tr><tr><td><div>False</div></td></tr><tr><td><div>#</div></td></tr><tr><td><div><table><tr><td><div><table><tr><td><div>\xc4\xb0ndir</div></td></tr><tr><td><div>False</div></td></tr><tr><td><div>http://www.web2py.com/examples/default/download</div></td></tr></table></div></td></tr><tr><td><div><table><tr><td><div>Destek</div></td></tr><tr><td><div>False</div></td></tr><tr><td><div>http://www.web2py.com/examples/default/support</div></td></tr></table></div></td></tr><tr><td><div><table><tr><td><div>Tan\xc4\xb1t\xc4\xb1m</div></td></tr><tr><td><div>False</div></td></tr><tr><td><div>http://web2py.com/demo_admin</div></td></tr></table></div></td></tr><tr><td><div><table><tr><td><div>H\xc4\xb1zl\xc4\xb1 \xc3\x96rnekler</div></td></tr><tr><td><div>False</div></td></tr><tr><td><div>http://web2py.com/examples/default/examples</div></td></tr></table></div></td></tr><tr><td><div><table><tr><td><div>SSS</div></td></tr><tr><td><div>False</div></td></tr><tr><td><div>http://web2py.com/AlterEgo</div></td></tr></table></div></td></tr><tr><td><div><table><tr><td><div>Videolar</div></td></tr><tr><td><div>False</div></td></tr><tr><td><div>http://www.web2py.com/examples/default/videos/</div></td></tr></table></div></td></tr><tr><td><div><table><tr><td><div>\xc3\x9ccretsiz uygulamalar</div></td></tr><tr><td><div>False</div></td></tr><tr><td><div>http://web2py.com/appliances</div></td></tr></table></div></td></tr><tr><td><div><table><tr><td><div>Eklentiler</div></td></tr><tr><td><div>False</div></td></tr><tr><td><div>http://web2py.com/plugins</div></td></tr></table></div></td></tr><tr><td><div><table><tr><td><div>Tarifeler</div></td></tr><tr><td><div>False</div></td></tr><tr><td><div>http://web2pyslices.com/</div></td></tr></table></div></td></tr></table></div></td></tr></table></div></td></tr><tr><td><div><table><tr><td><div>Kitap</div></td></tr><tr><td><div>False</div></td></tr><tr><td><div>#</div></td></tr><tr><td><div><table><tr><td><div><table><tr><td><div>Online book</div></td></tr><tr><td><div>False</div></td></tr><tr><td><div>http://www.web2py.com/book</div></td></tr></table></div></td></tr><tr><td><div><li class="divider"></li></div></td></tr><tr><td><div><table><tr><td><div>\xc3\x96nz\xc3\xb6s</div></td></tr><tr><td><div>False</div></td></tr><tr><td><div>http://www.web2py.com/book/default/chapter/00</div></td></tr></table></div></td></tr><tr><td><div><table><tr><td><div>Giri\xc5\x9f</div></td></tr><tr><td><div>False</div></td></tr><tr><td><div>http://www.web2py.com/book/default/chapter/01</div></td></tr></table></div></td></tr><tr><td><div><table><tr><td><div>Python</div></td></tr><tr><td><div>False</div></td></tr><tr><td><div>http://www.web2py.com/book/default/chapter/02</div></td></tr></table></div></td></tr><tr><td><div><table><tr><td><div>G\xc3\xb6z gezdir</div></td></tr><tr><td><div>False</div></td></tr><tr><td><div>http://www.web2py.com/book/default/chapter/03</div></td></tr></table></div></td></tr><tr><td><div><table><tr><td><div>\xc3\x87ekirdek</div></td></tr><tr><td><div>False</div></td></tr><tr><td><div>http://www.web2py.com/book/default/chapter/04</div></td></tr></table></div></td></tr><tr><td><div><table><tr><td><div>G\xc3\xb6r\xc3\xbcn\xc3\xbcmler</div></td></tr><tr><td><div>False</div></td></tr><tr><td><div>http://www.web2py.com/book/default/chapter/05</div></td></tr></table></div></td></tr><tr><td><div><table><tr><td><div>Veritaban\xc4\xb1</div></td></tr><tr><td><div>False</div></td></tr><tr><td><div>http://www.web2py.com/book/default/chapter/06</div></td></tr></table></div></td></tr><tr><td><div><table><tr><td><div>Bi\xc3\xa7imler ve Do\xc4\x9frulay\xc4\xb1c\xc4\xb1lar</div></td></tr><tr><td><div>False</div></td></tr><tr><td><div>http://www.web2py.com/book/default/chapter/07</div></td></tr></table></div></td></tr><tr><td><div><table><tr><td><div>E-posta ve k\xc4\xb1sa mesaj (SMS)</div></td></tr><tr><td><div>False</div></td></tr><tr><td><div>http://www.web2py.com/book/default/chapter/08</div></td></tr></table></div></td></tr><tr><td><div><table><tr><td><div>Eri\xc5\x9fim Denetimi</div></td></tr><tr><td><div>False</div></td></tr><tr><td><div>http://www.web2py.com/book/default/chapter/09</div></td></tr></table></div></td></tr><tr><td><div><table><tr><td><div>Hizmetler</div></td></tr><tr><td><div>False</div></td></tr><tr><td><div>http://www.web2py.com/book/default/chapter/10</div></td></tr></table></div></td></tr><tr><td><div><table><tr><td><div>Ajax Tarifleri</div></td></tr><tr><td><div>False</div></td></tr><tr><td><div>http://www.web2py.com/book/default/chapter/11</div></td></tr></table></div></td></tr><tr><td><div><table><tr><td><div>Bile\xc5\x9fenler ve Eklentiler</div></td></tr><tr><td><div>False</div></td></tr><tr><td><div>http://www.web2py.com/book/default/chapter/12</div></td></tr></table></div></td></tr><tr><td><div><table><tr><td><div>Yay\xc4\xb1nlama tarifleri</div></td></tr><tr><td><div>False</div></td></tr><tr><td><div>http://www.web2py.com/book/default/chapter/13</div></td></tr></table></div></td></tr><tr><td><div><table><tr><td><div>Di\xc4\x9fer Tarifler</div></td></tr><tr><td><div>False</div></td></tr><tr><td><div>http://www.web2py.com/book/default/chapter/14</div></td></tr></table></div></td></tr><tr><td><div><table><tr><td><div>Helping web2py</div></td></tr><tr><td><div>False</div></td></tr><tr><td><div>http://www.web2py.com/book/default/chapter/15</div></td></tr></table></div></td></tr><tr><td><div><table><tr><td><div>Buy web2py\'s book</div></td></tr><tr><td><div>False</div></td></tr><tr><td><div>http://stores.lulu.com/web2py</div></td></tr></table></div></td></tr></table></div></td></tr></table></div></td></tr><tr><td><div><table><tr><td><div>Topluluk</div></td></tr><tr><td><div>False</div></td></tr><tr><td><div>None</div></td></tr><tr><td><div><table><tr><td><div><table><tr><td><div>Gruplar</div></td></tr><tr><td><div>False</div></td></tr><tr><td><div>http://www.web2py.com/examples/default/usergroups</div></td></tr></table></div></td></tr><tr><td><div><table><tr><td><div>Twitter</div></td></tr><tr><td><div>False</div></td></tr><tr><td><div>http://twitter.com/web2py</div></td></tr></table></div></td></tr><tr><td><div><table><tr><td><div>Canl\xc4\xb1 Sohbet</div></td></tr><tr><td><div>False</div></td></tr><tr><td><div>http://webchat.freenode.net/?channels=web2py</div></td></tr></table></div></td></tr></table></div></td></tr></table></div></td></tr></table></div></td></tr><tr><td style="font-weight:bold;vertical-align:top;">meta</td><td style="vertical-align:top;">:</td><td><div><table><tr><td style="font-weight:bold;vertical-align:top;">author</td><td style="vertical-align:top;">:</td><td><div>Your Name &lt;you@example.com&gt;</div></td></tr><tr><td style="font-weight:bold;vertical-align:top;">description</td><td style="vertical-align:top;">:</td><td><div>a cool new app</div></td></tr><tr><td style="font-weight:bold;vertical-align:top;">generator</td><td style="vertical-align:top;">:</td><td><div>Web2py Web Framework</div></td></tr><tr><td style="font-weight:bold;vertical-align:top;">keywords</td><td style="vertical-align:top;">:</td><td><div>web2py, python, framework</div></td></tr></table></div></td></tr><tr><td style="font-weight:bold;vertical-align:top;">models_to_run</td><td style="vertical-align:top;">:</td><td><div><table><tr><td><div>^\\w+\\.py$</div></td></tr><tr><td><div>^default/\\w+\\.py$</div></td></tr><tr><td><div>^default/top/\\w+\\.py$</div></td></tr></table></div></td></tr><tr><td style="font-weight:bold;vertical-align:top;">postprocessing</td><td style="vertical-align:top;">:</td><td><div><table></table></div></td></tr><tr><td style="font-weight:bold;vertical-align:top;">session_client</td><td style="vertical-align:top;">:</td><td><div>127.0.0.1</div></td></tr><tr><td style="font-weight:bold;vertical-align:top;">session_cookie_compression_level</td><td style="vertical-align:top;">:</td><td><div>None</div></td></tr><tr><td style="font-weight:bold;vertical-align:top;">session_cookie_expires</td><td style="vertical-align:top;">:</td><td><div>None</div></td></tr><tr><td style="font-weight:bold;vertical-align:top;">session_cookie_key</td><td style="vertical-align:top;">:</td><td><div>None</div></td></tr><tr><td style="font-weight:bold;vertical-align:top;">session_data_name</td><td style="vertical-align:top;">:</td><td><div>session_data_musicproject</div></td></tr><tr><td style="font-weight:bold;vertical-align:top;">session_file</td><td style="vertical-align:top;">:</td><td><div>None</div></td></tr><tr><td style="font-weight:bold;vertical-align:top;">session_filename</td><td style="vertical-align:top;">:</td><td><div>C:\\Users\\w\xfdn 7\\Desktop\\web2py\\applications\\MusicProject\\sessions\\127.0.0.1-e983a75c-09cc-47aa-9050-112316fbe82c</div></td></tr><tr><td style="font-weight:bold;vertical-align:top;">session_hash</td><td style="vertical-align:top;">:</td><td><div>c0762cbf4baf7f9af97c051e7fcb8083</div></td></tr><tr><td style="font-weight:bold;vertical-align:top;">session_id</td><td style="vertical-align:top;">:</td><td><div>127.0.0.1-e983a75c-09cc-47aa-9050-112316fbe82c</div></td></tr><tr><td style="font-weight:bold;vertical-align:top;">session_id_name</td><td style="vertical-align:top;">:</td><td><div>session_id_musicproject</div></td></tr><tr><td style="font-weight:bold;vertical-align:top;">session_masterapp</td><td style="vertical-align:top;">:</td><td><div>MusicProject</div></td></tr><tr><td style="font-weight:bold;vertical-align:top;">session_new</td><td style="vertical-align:top;">:</td><td><div>True</div></td></tr><tr><td style="font-weight:bold;vertical-align:top;">session_storage_type</td><td style="vertical-align:top;">:</td><td><div>file</div></td></tr><tr><td style="font-weight:bold;vertical-align:top;">status</td><td style="vertical-align:top;">:</td><td><div>200</div></td></tr><tr><td style="font-weight:bold;vertical-align:top;">subtitle</td><td style="vertical-align:top;">:</td><td><div></div></td></tr><tr><td style="font-weight:bold;vertical-align:top;">title</td><td style="vertical-align:top;">:</td><td><div>Musicproject</div></td></tr><tr><td style="font-weight:bold;vertical-align:top;">view</td><td style="vertical-align:top;">:</td><td><div>default/top.html</div></td></tr></table></div>'
tRp108
sS'locals'
p109
(dp110
S'Service'
p111
S"<class 'gluon.tools.Service'>"
p112
sS'OBJECT'
p113
S"<class 'gluon.html.OBJECT'>"
p114
sS'SQLDB'
p115
S"<class 'pydal.base.DAL'>"
p116
sg101
S'<Storage {}>'
p117
sS'LINK'
p118
S"<class 'gluon.html.LINK'>"
p119
sS'BR'
p120
S"<class 'gluon.html.BR'>"
p121
sS'local_import'
p122
S'<function <lambda>>'
p123
sS'OPTGROUP'
p124
S"<class 'gluon.html.OPTGROUP'>"
p125
sS'__package__'
p126
S'None'
p127
sS'PRE'
p128
S"<class 'gluon.html.PRE'>"
p129
sS'IS_INT_IN_RANGE'
p130
S"<class 'gluon.validators.IS_INT_IN_RANGE'>"
p131
sS'IS_LOWER'
p132
S"<class 'gluon.validators.IS_LOWER'>"
p133
sS'IS_STRONG'
p134
S"<class 'gluon.validators.IS_STRONG'>"
p135
sS'cache'
p136
S'<gluon.cache.Cache object>'
p137
sS'IS_IN_DB'
p138
S"<class 'gluon.validators.IS_IN_DB'>"
p139
sS'TAG'
p140
S'<gluon.html.__TAG__ object>'
p141
sS'SQLField'
p142
S"<class 'pydal.objects.Field'>"
p143
sS'mail'
p144
S'<gluon.tools.Mail object>'
p145
sS'BODY'
p146
S"<class 'gluon.html.BODY'>"
p147
sS'IS_DATE_IN_RANGE'
p148
S"<class 'gluon.validators.IS_DATE_IN_RANGE'>"
p149
sS'IFRAME'
p150
S"<class 'gluon.html.IFRAME'>"
p151
sS'URL'
p152
S'<function URL>'
p153
sS'__file__'
p154
S"'C:\\\\Users\\\\w\\xfdn 7\\\\Desktop\\\\web2py\\\\applications\\\\MusicProject\\\\views\\\\default/top.html'"
p155
sS'db'
p156
S'<DAL uri="sqlite://storage.sqlite">'
p157
sS'auth'
p158
S'<gluon.tools.Auth object>'
p159
sS'P'
S"<class 'gluon.html.P'>"
p160
sS'TFOOT'
p161
S"<class 'gluon.html.TFOOT'>"
p162
sS'XHTML'
p163
S"<class 'gluon.html.XHTML'>"
p164
sS'ON'
p165
S'True'
p166
sS'OL'
p167
S"<class 'gluon.html.OL'>"
p168
sS'TEXTAREA'
p169
S"<class 'gluon.html.TEXTAREA'>"
p170
sS'MENU'
p171
S"<class 'gluon.html.MENU'>"
p172
sS'IS_IMAGE'
p173
S"<class 'gluon.validators.IS_IMAGE'>"
p174
sS'EM'
p175
S"<class 'gluon.html.EM'>"
p176
sS'CODE'
p177
S"<class 'gluon.html.CODE'>"
p178
sS'HTTP'
p179
S"<class 'gluon.http.HTTP'>"
p180
sS'HR'
p181
S"<class 'gluon.html.HR'>"
p182
sS'IS_DATETIME'
p183
S"<class 'gluon.validators.IS_DATETIME'>"
p184
sS'STYLE'
p185
S"<class 'gluon.html.STYLE'>"
p186
sS'LABEL'
p187
S"<class 'gluon.html.LABEL'>"
p188
sS'CLEANUP'
p189
S"<class 'gluon.validators.CLEANUP'>"
p190
sS'plugins'
p191
S'<gluon.tools.PluginManager object>'
p192
sS'SELECT'
p193
S"<class 'gluon.html.SELECT'>"
p194
sS'CENTER'
p195
S"<class 'gluon.html.CENTER'>"
p196
sS'Auth'
p197
S"<class 'gluon.tools.Auth'>"
p198
sS'DEVELOPMENT_MENU'
p199
g166
sS'__builtins__'
p200
S"{'ArithmeticError': <type 'exceptions.ArithmeticError'>, 'AssertionError': <type 'exceptions.AssertionError'>, 'AttributeError': <type 'exceptions.AttributeError'>, 'BaseException': <type 'exceptions.BaseException'>, 'BufferError': <type 'exceptions.BufferError'>, 'BytesWarning': <type 'exceptions.BytesWarning'>, 'DeprecationWarning': <type 'exceptions.DeprecationWarning'>, 'EOFError': <type 'exceptions.EOFError'>, 'Ellipsis': Ellipsis, 'EnvironmentError': <type 'exceptions.EnvironmentError'>, ...}"
p201
sS'HTML'
p202
S"<class 'gluon.html.HTML'>"
p203
sS'SQLFORM'
p204
S"<class 'gluon.sqlhtml.SQLFORM'>"
p205
sS'LOAD'
p206
S'<function LOAD>'
p207
sS'redirect'
p208
S'<function redirect>'
p209
sS'FIELDSET'
p210
S"<class 'gluon.html.FIELDSET'>"
p211
sS'IS_EQUAL_TO'
p212
S"<class 'gluon.validators.IS_EQUAL_TO'>"
p213
sS'embed64'
p214
S'<function embed64>'
p215
sS'IS_LIST_OF'
p216
S"<class 'gluon.validators.IS_LIST_OF'>"
p217
sS'INPUT'
p218
S"<class 'gluon.html.INPUT'>"
p219
sS'EMBED'
p220
S"<class 'gluon.html.EMBED'>"
p221
sS'_'
S'<function _>'
p222
sS'myconf'
p223
S"{'forms': {'formstyle': 'bootstrap3_inline', 'se...'you@gmail.com', 'server': 'smtp.gmail.com:587'}}"
p224
sS'H2'
p225
S"<class 'gluon.html.H2'>"
p226
sS'H3'
p227
S"<class 'gluon.html.H3'>"
p228
sS'AppConfig'
p229
S'<function AppConfig>'
p230
sS'H1'
p231
S"<class 'gluon.html.H1'>"
p232
sS'H6'
p233
S"<class 'gluon.html.H6'>"
p234
sS'H4'
p235
S"<class 'gluon.html.H4'>"
p236
sS'H5'
p237
S"<class 'gluon.html.H5'>"
p238
sS'UL'
p239
S"<class 'gluon.html.UL'>"
p240
sS'IS_UPPER'
p241
S"<class 'gluon.validators.IS_UPPER'>"
p242
sS'xmlescape'
p243
S'<function xmlescape>'
p244
sS'IS_TIME'
p245
S"<class 'gluon.validators.IS_TIME'>"
p246
sS'OPTION'
p247
S"<class 'gluon.html.OPTION'>"
p248
sS'TITLE'
p249
S"<class 'gluon.html.TITLE'>"
p250
sS'CRYPT'
p251
S"<class 'gluon.validators.CRYPT'>"
p252
sS'IS_EMPTY_OR'
p253
S"<class 'gluon.validators.IS_EMPTY_OR'>"
p254
sS'MARKMIN'
p255
S"<class 'gluon.html.MARKMIN'>"
p256
sS'__name__'
p257
S"'__restricted__'"
p258
sS'STRONG'
p259
S"<class 'gluon.html.STRONG'>"
p260
sS'COL'
p261
S"<class 'gluon.html.COL'>"
p262
sS'service'
p263
S'<gluon.tools.Service object>'
p264
sS'SCRIPT'
p265
S"<class 'gluon.html.SCRIPT'>"
p266
sS'msg'
p267
g45
sS'TABLE'
p268
S"<class 'gluon.html.TABLE'>"
p269
sS'IS_IPV4'
p270
S"<class 'gluon.validators.IS_IPV4'>"
p271
sS'IS_LENGTH'
p272
S"<class 'gluon.validators.IS_LENGTH'>"
p273
sS'IS_IPV6'
p274
S"<class 'gluon.validators.IS_IPV6'>"
p275
sS'XML'
p276
S"<class 'gluon.html.XML'>"
p277
sS'B'
S"<class 'gluon.html.B'>"
p278
sS'IMG'
p279
S"<class 'gluon.html.IMG'>"
p280
sS'SQLTABLE'
p281
S"<class 'gluon.sqlhtml.SQLTABLE'>"
p282
sS'IS_MATCH'
p283
S"<class 'gluon.validators.IS_MATCH'>"
p284
sS'IS_ALPHANUMERIC'
p285
S"<class 'gluon.validators.IS_ALPHANUMERIC'>"
p286
sS'SPAN'
p287
S"<class 'gluon.html.SPAN'>"
p288
sS'IS_JSON'
p289
S"<class 'gluon.validators.IS_JSON'>"
p290
sS'IS_IPADDRESS'
p291
S"<class 'gluon.validators.IS_IPADDRESS'>"
p292
sS'IS_SLUG'
p293
S"<class 'gluon.validators.IS_SLUG'>"
p294
sS'BEAUTIFY'
p295
S"<class 'gluon.html.BEAUTIFY'>"
p296
sS'META'
p297
S"<class 'gluon.html.META'>"
p298
sS'BUTTON'
p299
S"<class 'gluon.html.BUTTON'>"
p300
sS'IS_DATE'
p301
S"<class 'gluon.validators.IS_DATE'>"
p302
sS'IS_EMAIL'
p303
S"<class 'gluon.validators.IS_EMAIL'>"
p304
sS'IS_NOT_EMPTY'
p305
S"<class 'gluon.validators.IS_NOT_EMPTY'>"
p306
sS'IS_FLOAT_IN_RANGE'
p307
S"<class 'gluon.validators.IS_FLOAT_IN_RANGE'>"
p308
sS'TBODY'
p309
S"<class 'gluon.html.TBODY'>"
p310
sS'CAT'
p311
S"<class 'gluon.html.CAT'>"
p312
sS'Field'
p313
S"<class 'pydal.objects.Field'>"
p314
sS'IS_LIST_OF_EMAILS'
p315
S"<class 'gluon.validators.IS_LIST_OF_EMAILS'>"
p316
sS'DIV'
p317
S"<class 'gluon.html.DIV'>"
p318
sS'LEGEND'
p319
S"<class 'gluon.html.LEGEND'>"
p320
sS'COLGROUP'
p321
S"<class 'gluon.html.COLGROUP'>"
p322
sS'DAL'
p323
S"<class 'pydal.base.DAL'>"
p324
sS'ASSIGNJS'
p325
S'<function ASSIGNJS>'
p326
sS'TR'
p327
S"<class 'gluon.html.TR'>"
p328
sS'LI'
p329
S"<class 'gluon.html.LI'>"
p330
sS'TH'
p331
S"<class 'gluon.html.TH'>"
p332
sS'TD'
p333
S"<class 'gluon.html.TD'>"
p334
sS'PluginManager'
p335
S"<class 'gluon.tools.PluginManager'>"
p336
sS'IS_URL'
p337
S"<class 'gluon.validators.IS_URL'>"
p338
sS'A'
S"<class 'gluon.html.A'>"
p339
sS'HEAD'
p340
S"<class 'gluon.html.HEAD'>"
p341
sS'IS_DATETIME_IN_RANGE'
p342
S"<class 'gluon.validators.IS_DATETIME_IN_RANGE'>"
p343
sS'FORM'
p344
S"<class 'gluon.html.FORM'>"
p345
sS'I'
S"<class 'gluon.html.I'>"
p346
sS'IS_NOT_IN_DB'
p347
S"<class 'gluon.validators.IS_NOT_IN_DB'>"
p348
sg107
S"<Storage {'body': <cStringIO.StringO object at 0...bda> at 0x046E90B0>, 'view': 'default/top.html'}>"
p349
sS'THEAD'
p350
S"<class 'gluon.html.THEAD'>"
p351
sS'ANY_OF'
p352
S"<class 'gluon.validators.ANY_OF'>"
p353
sS'IS_NULL_OR'
p354
S"<class 'gluon.validators.IS_EMPTY_OR'>"
p355
sg56
S"<Storage {'_vars': None, 'function': 'top', 'coo...\\Desktop\\\\web2py\\\\applications\\\\MusicProject\\\\'}>"
p356
sS'IS_EXPR'
p357
S"<class 'gluon.validators.IS_EXPR'>"
p358
sS'T'
S'<gluon.languages.translator object>'
p359
sS'IS_IN_SET'
p360
S"<class 'gluon.validators.IS_IN_SET'>"
p361
sS'IS_UPLOAD_FILENAME'
p362
S"<class 'gluon.validators.IS_UPLOAD_FILENAME'>"
p363
sS'TT'
p364
S"<class 'gluon.html.TT'>"
p365
sS'IS_DECIMAL_IN_RANGE'
p366
S"<class 'gluon.validators.IS_DECIMAL_IN_RANGE'>"
p367
sssS'traceback'
p368
S'Traceback (most recent call last):\n  File "C:\\Users\\w\xfdn 7\\Desktop\\web2py\\gluon\\restricted.py", line 227, in restricted\n    exec ccode in environment\n  File "C:\\Users\\w\xfdn 7\\Desktop\\web2py\\applications\\MusicProject\\views\\default/top.html", line 4, in <module>\nAttributeError: \'NoneType\' object has no attribute \'replace\'\n'
p369
s.