(dp1
S'output'
p2
S'missing "pass" in view'
p3
sS'layer'
p4
S'ParserContainer'
p5
sS'code'
p6
S'response.write(\'<!DOCTYPE html PUBLIC "-//W3C//DTD XHTML 1.0 Strict//EN" "http://www.w3.org/TR/xhtml1/DTD/xhtml1-strict.dtd">\\r\\n<html xmlns="http://www.w3.org/1999/xhtml" xml:lang="en" lang="en">\\r\\n<head>\\r\\n<meta http-equiv="Content-Type" content="text/html; charset=utf-8"/>\\r\\n<title>Party Time</title>\\r\\n<link rel="stylesheet" href="style.css" type="text/css" charset="utf-8" />\\r\\n</head>\', escape=False)\nresponse.write(\'\\n\', escape=False)\nif  request.controller == "default" and request.function == "index"  :\n    response.write(\'   \', escape=False)\n    response.write(\'<body>\\r\\n<div id="wrapper">\\r\\n  <div id="body">\\r\\n    <div id="head"></div>\\r\\n    <div id="topnav"> <a href="#">Home</a> | <a href="#">Sitemap</a> </div>\\r\\n    <h1><img src="images/logo.jpg" width="401" height="271" alt="Logo" /></h1>\\r\\n    <div id="nav"> <a href="#"><img src="images/m1.gif" width="101" height="65" alt="M1" /></a> <a href="#"><img src="images/m2.gif" width="97" height="65" alt="M2" /></a> <a href="#"><img src="images/m3.gif" width="97" height="65" alt="M3" /></a> <a href="#"><img src="images/m4.gif" width="97" height="65" alt="M4" /></a> <a href="#"><img src="images/m5.gif" width="94" height="65" alt="M5" /></a> </div>\\r\\n    <div id="left-box">\\r\\n      <div class="inner"> <img src="images/pic_1.jpg" width="271" height="132" alt="Pic 1" />\\r\\n        <h2><img src="images/h_free_drink_party_on.gif" width="252" height="33" alt="Free Drink Party On" /></h2>\\r\\n        <p class="date">18/22/2006</p>\\r\\n        <p>Even more websites all about website templates on <a href="http://www.justwebtemplates.com">Just Web Templates</a>.</p>\\r\\n      </div>\\r\\n    </div>\\r\\n    <div id="content">\\r\\n      <div id="content-bot">\\r\\n        <div class="inner">\\r\\n          <h2><img src="images/h_our_party_news.gif" width="193" height="33" alt="Our Party News" /></h2>\\r\\n          <p class="date">18/22/2006</p>\\r\\n          <p>Don\\\'t forget to check <a href="#">free website templates</a> every day, because we add at least one free website template daily.</p>\\r\\n          <p>This is a template designed by free website templates for you for free you can replace all the text by your own text. This is just a place holder so you can see how the site would look like.</p>\\r\\n          <p class="date">18/22/2006</p>\\r\\n          <p>You can remove any link to our websites from this template you\\\'re free to use the template without linking back to us.</p>\\r\\n        </div>\\r\\n      </div>\\r\\n    </div>\\r\\n    <div id="tray">\\r\\n      <div class="redbox first">\\r\\n        <h2><img src="images/h_night_party.jpg" width="217" height="109" alt="Night Party" /></h2>\\r\\n        <p>If you\\\'re looking for beautiful and professionally made templates you can find them at <a href="http://www.templatebeauty.com">Template Beauty</a>.</p>\\r\\n        <ul>\\r\\n          <li>Nam congue dolor ut enim.</li>\\r\\n          <li>In consequat laoreet dui.</li>\\r\\n          <li>Pellentesque faucibus velit et urna.</li>\\r\\n        </ul>\\r\\n      </div>\\r\\n      <div class="redbox">\\r\\n        <h2><img src="images/h_our_djs.jpg" width="216" height="109" alt="Our Dj\\\'s" /></h2>\\r\\n        <p>Even more websites all about website templates on <a href="http://www.justwebtemplates.com">Just Web Templates</a>.</p>\\r\\n        <p>If you\\\'re looking for beautiful and professionally made templates you can find them at <a href="http://www.templatebeauty.com">Template Beauty</a>.</p>\\r\\n        <br />\\r\\n        <a href="#"><img src="images/details.jpg" width="66" height="42" alt="Details" id="details" /></a> </div>\\r\\n      <div class="redbox last">\\r\\n        <h2><img src="images/h_next_party.jpg" width="216" height="109" alt="H Next Party" /></h2>\\r\\n        <p>If you\\\'re looking for beautiful and professionally made templates you can find them at <a href="http://www.templatebeauty.com">Template Beauty</a>.</p>\\r\\n        <p>Even more websites all about website templates on <a href="http://www.justwebtemplates.com">Just Web Templates</a>.</p>\\r\\n        <br />\\r\\n      </div>\\r\\n      <div class="clear"></div>\\r\\n      <div class="divider"></div>\\r\\n    </div>\', escape=False)\n    response.write(\'\\n    <div class="right-column">\\n      <div class="right-column-heading">\\n        <h1>\', escape=False)\n    response.write(page_title)\n    response.write(\'</h1>\\n      </div>\\n      <div class="right-column-content">\\n        \', escape=False)\n    response.write(\' \\r\\nWelcome to out web site about ...\\r\\n\', escape=False)\n    response.write(\'\\n      </div>\\n    </div>\\n  </div>\\n</div>\\n<div class="footer">\\n  <div class="copy-rights">Copyright (c) Untitled. Design by www.alltemplateneeds.com,  Photos by www.photorack.net</div>\\n</div>\\n</body>\\n</html>\\n\\n\', escape=False)'
p7
sS'snapshot'
p8
(dp9
S'exception'
p10
(dp11
S'__module__'
p12
S"'gluon.rocket'"
p13
sS'__getslice__'
p14
S"<method-wrapper '__getslice__' of SocketTimeout object>"
p15
sS'__str__'
p16
S"<method-wrapper '__str__' of SocketTimeout object>"
p17
sS'__reduce__'
p18
S'<built-in method __reduce__ of SocketTimeout object>'
p19
sS'__dict__'
p20
S'{}'
p21
sS'__sizeof__'
p22
S'<built-in method __sizeof__ of SocketTimeout object>'
p23
sS'__weakref__'
p24
S'None'
p25
sS'__init__'
p26
S"<method-wrapper '__init__' of SocketTimeout object>"
p27
sS'__setattr__'
p28
S"<method-wrapper '__setattr__' of SocketTimeout object>"
p29
sS'__reduce_ex__'
p30
S'<built-in method __reduce_ex__ of SocketTimeout object>'
p31
sS'__new__'
p32
S'<built-in method __new__ of type object>'
p33
sS'__format__'
p34
S'<built-in method __format__ of SocketTimeout object>'
p35
sS'__class__'
p36
S"<class 'gluon.rocket.SocketTimeout'>"
p37
sS'__doc__'
p38
S"'Exception for when a socket times out between requests.'"
p39
sS'__getitem__'
p40
S"<method-wrapper '__getitem__' of SocketTimeout object>"
p41
sS'__setstate__'
p42
S'<built-in method __setstate__ of SocketTimeout object>'
p43
sS'__getattribute__'
p44
S"<method-wrapper '__getattribute__' of SocketTimeout object>"
p45
sS'args'
p46
S"('Socket timed out before request.',)"
p47
sS'__subclasshook__'
p48
S'<built-in method __subclasshook__ of type object>'
p49
sS'__unicode__'
p50
S'<built-in method __unicode__ of SocketTimeout object>'
p51
sS'__delattr__'
p52
S"<method-wrapper '__delattr__' of SocketTimeout object>"
p53
sS'__repr__'
p54
S"<method-wrapper '__repr__' of SocketTimeout object>"
p55
sS'__hash__'
p56
S"<method-wrapper '__hash__' of SocketTimeout object>"
p57
ssS'evalue'
p58
S'Socket timed out before request.'
p59
sS'frames'
p60
(lp61
(dp62
S'file'
p63
S'C:\\Users\\Lenovo\\Desktop\\School\\WebProject\\web2py\\gluon\\rocket.py'
p64
sS'dump'
p65
(dp66
S'self'
p67
S'<WSGIWorker(Thread-8, started daemon 2140)>'
p68
sS'conn'
p69
S'<gluon.rocket.Connection object>'
p70
sS'self.run_app'
p71
S'<bound method WSGIWorker.run_app of <WSGIWorker(Thread-8, started daemon 2140)>>'
p72
ssS'lnum'
p73
I1337
sS'lines'
p74
(dp75
I1332
S'            # Enter connection serve loop'
p76
sI1333
S'            while True:'
p77
sI1334
S'                if __debug__:'
p78
sI1335
S"                    self.err_log.debug('Serving a request')"
p79
sI1336
S'                try:'
p80
sI1337
S'                    self.run_app(conn)'
p81
sI1338
S'                except:'
p82
sI1339
S'                    exc = sys.exc_info()'
p83
sI1340
S'                    handled = self._handleError(*exc)'
p84
sI1341
S'                    if handled:'
p85
ssS'call'
p86
S'(self=<WSGIWorker(Thread-8, started daemon 2140)>)'
p87
sS'func'
p88
S'run'
p89
sa(dp90
g63
S'C:\\Users\\Lenovo\\Desktop\\School\\WebProject\\web2py\\gluon\\rocket.py'
p91
sg65
(dp92
S'self'
p93
S'<WSGIWorker(Thread-8, started daemon 2140)>'
p94
sS'self.environ'
p95
S"{'HTTP_ACCEPT': 'text/html,application/xhtml+xml,application/xml;q=0.9,image/webp,*/*;q=0.8', 'HTTP_ACCEPT_ENCODING': 'gzip, deflate, sdch', 'HTTP_ACCEPT_LANGUAGE': 'tr-TR,tr;q=0.8,en-US;q=0.6,en;q=0.4', 'HTTP_CACHE_CONTROL': 'max-age=0', 'HTTP_CONNECTION': 'keep-alive', 'HTTP_COOKIE': 'session_id_welcome=127.0.0.1-b7125988-6542-4abd-...in=127.0.0.1-53417d15-8a41-4905-ab8e-a93f38179e5b', 'HTTP_HOST': '127.0.0.1:8000', 'HTTP_REFERER': 'http://127.0.0.1:8000/admin/default/site', 'HTTP_UPGRADE_INSECURE_REQUESTS': '1', 'HTTP_USER_AGENT': 'Mozilla/5.0 (Windows NT 6.3; WOW64) AppleWebKit/...ML, like Gecko) Chrome/46.0.2490.86 Safari/537.36', ...}"
p96
sS'sock_file'
p97
S'<socket._fileobject object>'
p98
sS'environ'
p99
S'undefined'
p100
sS'self.build_environ'
p101
S'<bound method WSGIWorker.build_environ of <WSGIWorker(Thread-8, started daemon 2140)>>'
p102
sS'conn'
p103
S'<gluon.rocket.Connection object>'
p104
ssg73
I1830
sg74
(dp105
I1825
S'        else:'
p106
sI1826
S'            sock_file = conn.makefile(BUF_SIZE)'
p107
sI1827
S''
sI1828
S'        try:'
p108
sI1829
S'            # Read the headers and build our WSGI environment'
p109
sI1830
S'            self.environ = environ = self.build_environ(sock_file, conn)'
p110
sI1831
S''
sI1832
S'            # Handle 100 Continue'
p111
sI1833
S"            if environ.get('HTTP_EXPECT', '') == '100-continue':"
p112
sI1834
S"                res = environ['SERVER_PROTOCOL'] + ' 100 Continue\\r\\n\\r\\n'"
p113
ssg86
S'(self=<WSGIWorker(Thread-8, started daemon 2140)>, conn=<gluon.rocket.Connection object>)'
p114
sg88
S'run_app'
p115
sa(dp116
g63
S'C:\\Users\\Lenovo\\Desktop\\School\\WebProject\\web2py\\gluon\\rocket.py'
p117
sg65
(dp118
S'sock_file'
p119
S'<socket._fileobject object>'
p120
sS'self.read_request_line'
p121
S'<bound method WSGIWorker.read_request_line of <WSGIWorker(Thread-8, started daemon 2140)>>'
p122
sS'self'
p123
S'<WSGIWorker(Thread-8, started daemon 2140)>'
p124
sS'request'
p125
g100
ssg73
I1650
sg74
(dp126
I1645
S'                                      "wsgiorg.futures": executor.futures})'
p127
sI1646
S''
sI1647
S'    def build_environ(self, sock_file, conn):'
p128
sI1648
S'        """ Build the execution environment. """'
p129
sI1649
S'        # Grab the request line'
p130
sI1650
S'        request = self.read_request_line(sock_file)'
p131
sI1651
S''
sI1652
S'        # Copy the Base Environment'
p132
sI1653
S'        environ = self.base_environ.copy()'
p133
sI1654
S''
ssg86
S'(self=<WSGIWorker(Thread-8, started daemon 2140)>, sock_file=<socket._fileobject object>, conn=<gluon.rocket.Connection object>)'
p134
sg88
S'build_environ'
p135
sa(dp136
g63
S'C:\\Users\\Lenovo\\Desktop\\School\\WebProject\\web2py\\gluon\\rocket.py'
p137
sg65
(dp138
S'global SocketTimeout'
p139
S"<class 'gluon.rocket.SocketTimeout'>"
p140
ssg73
I1401
sg74
(dp141
I1396
S''
sI1397
S'                d = sock_file.readline()'
p142
sI1398
S'                if PY3K:'
p143
sI1399
S"                    d = d.decode('ISO-8859-1')"
p144
sI1400
S'        except socket.timeout:'
p145
sI1401
S"            raise SocketTimeout('Socket timed out before request.')"
p146
sI1402
S'        except TypeError:'
p147
sI1403
S'            raise SocketClosed('
p148
sI1404
S"                'SSL bug caused closure of socket.  See '"
p149
sI1405
S'                \'"https://groups.google.com/d/topic/web2py/P_Gw0JxWzCs".\')'
p150
ssg86
S'(self=<WSGIWorker(Thread-8, started daemon 2140)>, sock_file=<socket._fileobject object>)'
p151
sg88
S'read_request_line'
p152
sasS'pyver'
p153
S'Python 2.7.9: C:\\Users\\Lenovo\\Desktop\\School\\WebProject\\web2py\\web2py.exe (prefix: )'
p154
sS'etype'
p155
S"<class 'gluon.rocket.SocketTimeout'>"
p156
sS'date'
p157
S'Fri Nov 20 14:29:48 2015'
p158
sS'locals'
p159
(dp160
S'sock_file'
p161
S'<socket._fileobject object>'
p162
sS'self'
p163
S'<WSGIWorker(Thread-8, started daemon 2140)>'
p164
sssS'traceback'
p165
S'Traceback (most recent call last):\n  File "C:\\Users\\Lenovo\\Desktop\\School\\WebProject\\web2py\\gluon\\rocket.py", line 1337, in run\n    self.run_app(conn)\n  File "C:\\Users\\Lenovo\\Desktop\\School\\WebProject\\web2py\\gluon\\rocket.py", line 1830, in run_app\n    self.environ = environ = self.build_environ(sock_file, conn)\n  File "C:\\Users\\Lenovo\\Desktop\\School\\WebProject\\web2py\\gluon\\rocket.py", line 1650, in build_environ\n    request = self.read_request_line(sock_file)\n  File "C:\\Users\\Lenovo\\Desktop\\School\\WebProject\\web2py\\gluon\\rocket.py", line 1401, in read_request_line\n    raise SocketTimeout(\'Socket timed out before request.\')\nSocketTimeout: Socket timed out before request.\n'
p166
s.